target datalayout = "e-m:e-p270:32:32-p271:32:32-p272:64:64-i64:64-i128:128-f80:128-n8:16:32:64-S128"
target triple = "x86_64-pc-linux-gnu"

; Function Attrs: nounwind uwtable
define void @dt_history_snapshot_restore(i32 noundef %0, i32 noundef %1, i32 noundef %2) #0 {
  %4 = alloca i32, align 4
  %5 = alloca i32, align 4
  %6 = alloca i32, align 4
  store i32 %0, ptr %4, align 4, !tbaa !6
  store i32 %1, ptr %5, align 4, !tbaa !6
  store i32 %2, ptr %6, align 4, !tbaa !6
  %7 = load i32, ptr %6, align 4, !tbaa !6
  %8 = icmp ne i32 %7, -1
  br i1 %8, label %9, label %13

9:                                                ; preds = %3
  %10 = load i32, ptr %4, align 4, !tbaa !6
  %11 = load i32, ptr %5, align 4, !tbaa !6
  %12 = load i32, ptr %6, align 4, !tbaa !6
  call void @_history_snapshot_restore(i32 noundef %10, i32 noundef %11, i32 noundef %12)
  br label %13

13:                                               ; preds = %9, %3
  ret void
}