; Function Attrs: nounwind uwtable
define void @dt_history_snapshot_restore(i32 noundef %0, i32 noundef %1, i32 noundef %2) local_unnamed_addr #0 {
  %.not = icmp eq i32 %2, -1
  br i1 %.not, label %5, label %4

4:                                                ; preds = %3
  tail call fastcc void @_history_snapshot_restore(i32 noundef %0, i32 noundef %1, i32 noundef %2)
  br label %5

5:                                                ; preds = %4, %3
  ret void
}